; Function Attrs: nounwind uwtable
define void @Intp_ManUnsatCore_rec(ptr noundef readonly captures(none) %0, i32 noundef %1, ptr noundef captures(none) %2, i32 noundef %3, ptr noundef readonly captures(none) %4, i32 noundef %5) local_unnamed_addr #3 {
  %7 = getelementptr i8, ptr %4, i64 8
  %.val31 = load ptr, ptr %7, align 8
  %8 = sext i32 %1 to i64
  %9 = getelementptr inbounds i8, ptr %.val31, i64 %8
  %10 = load i8, ptr %9, align 1
  %.not = icmp eq i8 %10, 0
  br i1 %.not, label %11, label %90

11:                                               ; preds = %6
  store i8 1, ptr %9, align 1
  %12 = icmp slt i32 %1, %3
  br i1 %12, label %13, label %44

13:                                               ; preds = %11
  %.not28 = icmp eq i32 %5, 0
  br i1 %.not28, label %14, label %90

14:                                               ; preds = %13
  %15 = getelementptr inbounds nuw i8, ptr %2, i64 4
  %16 = load i32, ptr %15, align 4
  %17 = load i32, ptr %2, align 8
  %18 = icmp eq i32 %16, %17
  br i1 %18, label %19, label %.Vec_IntGrow.exit10_crit_edge.i

.Vec_IntGrow.exit10_crit_edge.i:                  ; preds = %14
  %.phi.trans.insert.i = getelementptr inbounds nuw i8, ptr %2, i64 8
  %.pre.i = load ptr, ptr %.phi.trans.insert.i, align 8
  br label %Vec_IntPush.exit

19:                                               ; preds = %14
  %20 = icmp slt i32 %16, 16
  br i1 %20, label %21, label %29

21:                                               ; preds = %19
  %22 = getelementptr inbounds nuw i8, ptr %2, i64 8
  %23 = load ptr, ptr %22, align 8
  %.not9.i.i = icmp eq ptr %23, null
  br i1 %.not9.i.i, label %26, label %24

24:                                               ; preds = %21
  %25 = tail call dereferenceable_or_null(64) ptr @realloc(ptr noundef nonnull %23, i64 noundef 64) #15
  br label %Vec_IntGrow.exit.i

26:                                               ; preds = %21
  %27 = tail call noalias dereferenceable_or_null(64) ptr @malloc(i64 noundef 64) #14
  br label %Vec_IntGrow.exit.i

Vec_IntGrow.exit.i:                               ; preds = %26, %24
  %28 = phi ptr [ %25, %24 ], [ %27, %26 ]
  store ptr %28, ptr %22, align 8
  store i32 16, ptr %2, align 8
  br label %Vec_IntPush.exit

29:                                               ; preds = %19
  %30 = shl nuw nsw i32 %16, 1
  %31 = getelementptr inbounds nuw i8, ptr %2, i64 8
  %32 = load ptr, ptr %31, align 8
  %.not9.i9.i = icmp eq ptr %32, null
  %33 = zext nneg i32 %30 to i64
  %34 = shl nuw nsw i64 %33, 2
  br i1 %.not9.i9.i, label %37, label %35

35:                                               ; preds = %29
  %36 = tail call ptr @realloc(ptr noundef nonnull %32, i64 noundef %34) #15
  br label %39

37:                                               ; preds = %29
  %38 = tail call noalias ptr @malloc(i64 noundef %34) #14
  br label %39

39:                                               ; preds = %37, %35
  %40 = phi ptr [ %36, %35 ], [ %38, %37 ]
  store ptr %40, ptr %31, align 8
  store i32 %30, ptr %2, align 8
  br label %Vec_IntPush.exit

Vec_IntPush.exit:                                 ; preds = %.Vec_IntGrow.exit10_crit_edge.i, %Vec_IntGrow.exit.i, %39
  %41 = phi ptr [ %.pre.i, %.Vec_IntGrow.exit10_crit_edge.i ], [ %40, %39 ], [ %28, %Vec_IntGrow.exit.i ]
  %42 = load i32, ptr %15, align 4
  %43 = add nsw i32 %42, 1
  store i32 %43, ptr %15, align 4
  br label %.sink.split

44:                                               ; preds = %11
  %45 = sub nsw i32 %1, %3
  %46 = getelementptr i8, ptr %0, i64 8
  %.val30 = load ptr, ptr %46, align 8
  %47 = sext i32 %45 to i64
  %48 = getelementptr inbounds ptr, ptr %.val30, i64 %47
  %49 = load ptr, ptr %48, align 8
  %50 = getelementptr i8, ptr %49, i64 4
  %.val40 = load i32, ptr %50, align 4
  %51 = icmp sgt i32 %.val40, 0
  br i1 %51, label %.lr.ph, label %.critedge

.lr.ph:                                           ; preds = %44
  %52 = getelementptr i8, ptr %49, i64 8
  br label %53

53:                                               ; preds = %.lr.ph, %53
  %indvars.iv = phi i64 [ 0, %.lr.ph ], [ %indvars.iv.next, %53 ]
  %.val29 = load ptr, ptr %52, align 8
  %54 = getelementptr inbounds nuw i32, ptr %.val29, i64 %indvars.iv
  %55 = load i32, ptr %54, align 4
  tail call void @Intp_ManUnsatCore_rec(ptr noundef %0, i32 noundef %55, ptr noundef %2, i32 noundef %3, ptr noundef %4, i32 noundef %5)
  %indvars.iv.next = add nuw nsw i64 %indvars.iv, 1
  %.val = load i32, ptr %50, align 4
  %56 = sext i32 %.val to i64
  %57 = icmp slt i64 %indvars.iv.next, %56
  br i1 %57, label %53, label %.critedge, !llvm.loop !35

.critedge:                                        ; preds = %53, %44
  %.not27 = icmp eq i32 %5, 0
  br i1 %.not27, label %90, label %58

58:                                               ; preds = %.critedge
  %59 = getelementptr inbounds nuw i8, ptr %2, i64 4
  %60 = load i32, ptr %59, align 4
  %61 = load i32, ptr %2, align 8
  %62 = icmp eq i32 %60, %61
  br i1 %62, label %63, label %.Vec_IntGrow.exit10_crit_edge.i33

.Vec_IntGrow.exit10_crit_edge.i33:                ; preds = %58
  %.phi.trans.insert.i34 = getelementptr inbounds nuw i8, ptr %2, i64 8
  %.pre.i35 = load ptr, ptr %.phi.trans.insert.i34, align 8
  br label %Vec_IntPush.exit39

63:                                               ; preds = %58
  %64 = icmp slt i32 %60, 16
  br i1 %64, label %65, label %73

65:                                               ; preds = %63
  %66 = getelementptr inbounds nuw i8, ptr %2, i64 8
  %67 = load ptr, ptr %66, align 8
  %.not9.i.i37 = icmp eq ptr %67, null
  br i1 %.not9.i.i37, label %70, label %68

68:                                               ; preds = %65
  %69 = tail call dereferenceable_or_null(64) ptr @realloc(ptr noundef nonnull %67, i64 noundef 64) #15
  br label %Vec_IntGrow.exit.i38

70:                                               ; preds = %65
  %71 = tail call noalias dereferenceable_or_null(64) ptr @malloc(i64 noundef 64) #14
  br label %Vec_IntGrow.exit.i38

Vec_IntGrow.exit.i38:                             ; preds = %70, %68
  %72 = phi ptr [ %69, %68 ], [ %71, %70 ]
  store ptr %72, ptr %66, align 8
  store i32 16, ptr %2, align 8
  br label %Vec_IntPush.exit39

73:                                               ; preds = %63
  %74 = shl nuw nsw i32 %60, 1
  %75 = getelementptr inbounds nuw i8, ptr %2, i64 8
  %76 = load ptr, ptr %75, align 8
  %.not9.i9.i36 = icmp eq ptr %76, null
  %77 = zext nneg i32 %74 to i64
  %78 = shl nuw nsw i64 %77, 2
  br i1 %.not9.i9.i36, label %81, label %79

79:                                               ; preds = %73
  %80 = tail call ptr @realloc(ptr noundef nonnull %76, i64 noundef %78) #15
  br label %83

81:                                               ; preds = %73
  %82 = tail call noalias ptr @malloc(i64 noundef %78) #14
  br label %83

83:                                               ; preds = %81, %79
  %84 = phi ptr [ %80, %79 ], [ %82, %81 ]
  store ptr %84, ptr %75, align 8
  store i32 %74, ptr %2, align 8
  br label %Vec_IntPush.exit39

Vec_IntPush.exit39:                               ; preds = %.Vec_IntGrow.exit10_crit_edge.i33, %Vec_IntGrow.exit.i38, %83
  %85 = phi ptr [ %.pre.i35, %.Vec_IntGrow.exit10_crit_edge.i33 ], [ %84, %83 ], [ %72, %Vec_IntGrow.exit.i38 ]
  %86 = load i32, ptr %59, align 4
  %87 = add nsw i32 %86, 1
  store i32 %87, ptr %59, align 4
  br label %.sink.split

.sink.split:                                      ; preds = %Vec_IntPush.exit39, %Vec_IntPush.exit
  %.sink = phi i32 [ %42, %Vec_IntPush.exit ], [ %86, %Vec_IntPush.exit39 ]
  %.sink43 = phi ptr [ %41, %Vec_IntPush.exit ], [ %85, %Vec_IntPush.exit39 ]
  %88 = sext i32 %.sink to i64
  %89 = getelementptr inbounds i32, ptr %.sink43, i64 %88
  store i32 %1, ptr %89, align 4
  br label %90

90:                                               ; preds = %.sink.split, %13, %6, %.critedge
  ret void
}